; Function Attrs: mustprogress noinline uwtable
define hidden noundef ptr @_ZN6google8protobuf5Arena18CreateMaybeMessageIN17opencv_tensorflow12NameAttrListEJEEEPT_PS1_DpOT0_(ptr noundef %0) local_unnamed_addr #17 align 2 personality ptr @__gxx_personality_v0 {
  %2 = icmp eq ptr %0, null
  br i1 %2, label %_ZN6google8protobuf5Arena14InternalHelperIN17opencv_tensorflow12NameAttrListEE3NewEv.exit, label %15

_ZN6google8protobuf5Arena14InternalHelperIN17opencv_tensorflow12NameAttrListEE3NewEv.exit: ; preds = %1
  %3 = tail call noalias noundef nonnull dereferenceable(152) ptr @_Znwm(i64 noundef 152) #32
  %4 = getelementptr inbounds nuw i8, ptr %3, i64 8
  store i64 0, ptr %4, align 8, !tbaa !16
  store ptr getelementptr inbounds nuw inrange(-16, 152) (i8, ptr @_ZTVN17opencv_tensorflow12NameAttrListE, i64 16), ptr %3, align 8, !tbaa !19
  %5 = getelementptr inbounds nuw i8, ptr %3, i64 16
  %6 = getelementptr inbounds nuw i8, ptr %3, i64 24
  tail call void @llvm.memset.p0.i64(ptr noundef nonnull align 8 dereferenceable(60) %6, i8 0, i64 60, i1 false)
  store ptr getelementptr inbounds nuw inrange(-16, 192) (i8, ptr @_ZTVN6google8protobuf8internal8MapFieldIN17opencv_tensorflow31NameAttrList_AttrEntry_DoNotUseENSt7__cxx1112basic_stringIcSt11char_traitsIcESaIcEEENS3_9AttrValueELNS1_14WireFormatLite9FieldTypeE9ELSD_11EEE, i64 16), ptr %5, align 8, !tbaa !19
  %7 = getelementptr inbounds nuw i8, ptr %3, i64 88
  store i64 0, ptr %7, align 8, !tbaa !139
  %8 = getelementptr inbounds nuw i8, ptr %3, i64 96
  store i64 1, ptr %8, align 8, !tbaa !118
  %9 = getelementptr inbounds nuw i8, ptr %3, i64 104
  store i64 0, ptr %9, align 8, !tbaa !140
  %10 = getelementptr inbounds nuw i8, ptr %3, i64 112
  store i64 1, ptr %10, align 8, !tbaa !141
  %11 = getelementptr inbounds nuw i8, ptr %3, i64 120
  store ptr @_ZN6google8protobuf8internal17kGlobalEmptyTableE, ptr %11, align 8, !tbaa !121
  %12 = getelementptr inbounds nuw i8, ptr %3, i64 128
  store ptr null, ptr %12, align 8, !tbaa !116
  %13 = getelementptr inbounds nuw i8, ptr %3, i64 144
  store i32 0, ptr %13, align 4, !tbaa !42
  %14 = getelementptr inbounds nuw i8, ptr %3, i64 136
  store ptr @_ZN6google8protobuf8internal26fixed_address_empty_stringB5cxx11E, ptr %14, align 8, !tbaa !114
  br label %_ZN6google8protobuf5Arena21CreateMessageInternalIN17opencv_tensorflow12NameAttrListEEEPT_PS1_.exit

15:                                               ; preds = %1
  %16 = tail call noundef ptr @_ZN6google8protobuf5Arena23AllocateAlignedWithHookEmPKSt9type_info(ptr noundef nonnull align 8 dereferenceable(32) %0, i64 noundef 152, ptr noundef nonnull @_ZTIN17opencv_tensorflow12NameAttrListE)
  %17 = getelementptr inbounds nuw i8, ptr %16, i64 8
  %18 = ptrtoint ptr %0 to i64
  store i64 %18, ptr %17, align 8, !tbaa !16
  store ptr getelementptr inbounds nuw inrange(-16, 152) (i8, ptr @_ZTVN17opencv_tensorflow12NameAttrListE, i64 16), ptr %16, align 8, !tbaa !19
  %19 = getelementptr inbounds nuw i8, ptr %16, i64 16
  %20 = getelementptr inbounds nuw i8, ptr %16, i64 24
  store ptr %0, ptr %20, align 8, !tbaa !131
  %21 = getelementptr inbounds nuw i8, ptr %16, i64 32
  tail call void @llvm.memset.p0.i64(ptr noundef nonnull align 8 dereferenceable(52) %21, i8 0, i64 52, i1 false)
  store ptr getelementptr inbounds nuw inrange(-16, 192) (i8, ptr @_ZTVN6google8protobuf8internal8MapFieldIN17opencv_tensorflow31NameAttrList_AttrEntry_DoNotUseENSt7__cxx1112basic_stringIcSt11char_traitsIcESaIcEEENS3_9AttrValueELNS1_14WireFormatLite9FieldTypeE9ELSD_11EEE, i64 16), ptr %19, align 8, !tbaa !19
  %22 = getelementptr inbounds nuw i8, ptr %16, i64 88
  store i64 0, ptr %22, align 8, !tbaa !139
  %23 = getelementptr inbounds nuw i8, ptr %16, i64 96
  store i64 1, ptr %23, align 8, !tbaa !118
  %24 = getelementptr inbounds nuw i8, ptr %16, i64 104
  store i64 0, ptr %24, align 8, !tbaa !140
  %25 = getelementptr inbounds nuw i8, ptr %16, i64 112
  store i64 1, ptr %25, align 8, !tbaa !141
  %26 = getelementptr inbounds nuw i8, ptr %16, i64 120
  store ptr @_ZN6google8protobuf8internal17kGlobalEmptyTableE, ptr %26, align 8, !tbaa !121
  %27 = getelementptr inbounds nuw i8, ptr %16, i64 128
  store ptr %0, ptr %27, align 8, !tbaa !116
  %28 = getelementptr inbounds nuw i8, ptr %16, i64 144
  store i32 0, ptr %28, align 4, !tbaa !42
  %29 = getelementptr inbounds nuw i8, ptr %16, i64 136
  store ptr @_ZN6google8protobuf8internal26fixed_address_empty_stringB5cxx11E, ptr %29, align 8, !tbaa !114
  invoke void @_ZN6google8protobuf8internal15ThreadSafeArena10AddCleanupEPvPFvS3_E(ptr noundef nonnull align 8 dereferenceable(32) %0, ptr noundef nonnull align 8 dereferenceable(152) %16, ptr noundef nonnull @_ZN17opencv_tensorflow12NameAttrList9ArenaDtorEPv)
          to label %_ZN6google8protobuf5Arena21CreateMessageInternalIN17opencv_tensorflow12NameAttrListEEEPT_PS1_.exit unwind label %30

30:                                               ; preds = %15
  %31 = landingpad { ptr, i32 }
          cleanup
  tail call void @_ZN6google8protobuf8internal8MapFieldIN17opencv_tensorflow31NameAttrList_AttrEntry_DoNotUseENSt7__cxx1112basic_stringIcSt11char_traitsIcESaIcEEENS3_9AttrValueELNS1_14WireFormatLite9FieldTypeE9ELSD_11EED2Ev(ptr noundef nonnull align 8 dereferenceable(120) %19) #30
  tail call void @_ZN6google8protobuf11MessageLiteD2Ev(ptr noundef nonnull align 8 dereferenceable(152) %16) #30
  resume { ptr, i32 } %31

_ZN6google8protobuf5Arena21CreateMessageInternalIN17opencv_tensorflow12NameAttrListEEEPT_PS1_.exit: ; preds = %15, %_ZN6google8protobuf5Arena14InternalHelperIN17opencv_tensorflow12NameAttrListEE3NewEv.exit
  %.0.i = phi ptr [ %3, %_ZN6google8protobuf5Arena14InternalHelperIN17opencv_tensorflow12NameAttrListEE3NewEv.exit ], [ %16, %15 ]
  ret ptr %.0.i
}